target datalayout = "e-m:e-p270:32:32-p271:32:32-p272:64:64-i64:64-i128:128-f80:128-n8:16:32:64-S128"
target triple = "x86_64-pc-linux-gnu"

%struct._zval_struct = type { %union._zend_value, %union.anon, %union.anon.2 }
%union._zend_value = type { i64 }
%union.anon = type { i32 }
%union.anon.2 = type { i32 }
%struct._xmlError = type { i32, i32, ptr, i32, ptr, i32, ptr, ptr, ptr, i32, i32, ptr, ptr }
%struct._zend_execute_data = type { ptr, ptr, ptr, ptr, %struct._zval_struct, ptr, ptr, ptr, ptr }

@libxmlerror_class_entry = internal global ptr null, align 8
@.str.5 = private unnamed_addr constant [6 x i8] c"level\00", align 1
@.str.6 = private unnamed_addr constant [5 x i8] c"code\00", align 1
@.str.7 = private unnamed_addr constant [7 x i8] c"column\00", align 1
@.str.8 = private unnamed_addr constant [8 x i8] c"message\00", align 1
@.str.9 = private unnamed_addr constant [1 x i8] zeroinitializer, align 1
@.str.10 = private unnamed_addr constant [5 x i8] c"file\00", align 1
@.str.11 = private unnamed_addr constant [5 x i8] c"line\00", align 1

; Function Attrs: nounwind uwtable
define hidden void @zif_libxml_get_last_error(ptr noundef %0, ptr noundef %1) #0 {
  %3 = alloca ptr, align 8
  %4 = alloca ptr, align 8
  %5 = alloca ptr, align 8
  %6 = alloca i64, align 8
  %7 = alloca ptr, align 8
  %8 = alloca ptr, align 8
  %9 = alloca ptr, align 8
  %10 = alloca i64, align 8
  %11 = alloca ptr, align 8
  %12 = alloca ptr, align 8
  %13 = alloca ptr, align 8
  %14 = alloca ptr, align 8
  %15 = alloca ptr, align 8
  %16 = alloca ptr, align 8
  %17 = alloca ptr, align 8
  %18 = alloca ptr, align 8
  %19 = alloca i64, align 8
  %20 = alloca ptr, align 8
  %21 = alloca ptr, align 8
  %22 = alloca i64, align 8
  %23 = alloca ptr, align 8
  %24 = alloca ptr, align 8
  %25 = alloca i64, align 8
  %26 = alloca ptr, align 8
  %27 = alloca ptr, align 8
  %28 = alloca i64, align 8
  %29 = alloca ptr, align 8
  %30 = alloca ptr, align 8
  %31 = alloca ptr, align 8
  store ptr %0, ptr %29, align 8
  store ptr %1, ptr %30, align 8
  br label %32

32:                                               ; preds = %2
  %33 = load ptr, ptr %29, align 8
  %34 = getelementptr inbounds %struct._zend_execute_data, ptr %33, i32 0, i32 4
  %35 = getelementptr inbounds %struct._zval_struct, ptr %34, i32 0, i32 2
  %36 = load i32, ptr %35, align 4
  %37 = icmp ne i32 %36, 0
  %38 = xor i1 %37, true
  %39 = xor i1 %38, true
  %40 = zext i1 %39 to i32
  %41 = sext i32 %40 to i64
  %42 = icmp ne i64 %41, 0
  br i1 %42, label %43, label %44

43:                                               ; preds = %32
  call void @zend_wrong_parameters_none_error()
  br label %146

44:                                               ; preds = %32
  br label %45

45:                                               ; preds = %44
  %46 = call ptr @xmlGetLastError()
  store ptr %46, ptr %31, align 8
  %47 = load ptr, ptr %31, align 8
  %48 = icmp ne ptr %47, null
  br i1 %48, label %49, label %139

49:                                               ; preds = %45
  %50 = load ptr, ptr %30, align 8
  %51 = load ptr, ptr @libxmlerror_class_entry, align 8
  %52 = call i32 @object_init_ex(ptr noundef %50, ptr noundef %51)
  %53 = load ptr, ptr %30, align 8
  %54 = load ptr, ptr %31, align 8
  %55 = getelementptr inbounds %struct._xmlError, ptr %54, i32 0, i32 3
  %56 = load i32, ptr %55, align 8
  %57 = zext i32 %56 to i64
  store ptr %53, ptr %17, align 8
  store ptr @.str.5, ptr %18, align 8
  store i64 %57, ptr %19, align 8
  %58 = load ptr, ptr %17, align 8
  %59 = load ptr, ptr %18, align 8
  %60 = load ptr, ptr %18, align 8
  %61 = call i64 @strlen(ptr noundef %60) #10
  %62 = load i64, ptr %19, align 8
  call void @add_property_long_ex(ptr noundef %58, ptr noundef %59, i64 noundef %61, i64 noundef %62) #11
  %63 = load ptr, ptr %30, align 8
  %64 = load ptr, ptr %31, align 8
  %65 = getelementptr inbounds %struct._xmlError, ptr %64, i32 0, i32 1
  %66 = load i32, ptr %65, align 4
  %67 = sext i32 %66 to i64
  store ptr %63, ptr %20, align 8
  store ptr @.str.6, ptr %21, align 8
  store i64 %67, ptr %22, align 8
  %68 = load ptr, ptr %20, align 8
  %69 = load ptr, ptr %21, align 8
  %70 = load ptr, ptr %21, align 8
  %71 = call i64 @strlen(ptr noundef %70) #10
  %72 = load i64, ptr %22, align 8
  call void @add_property_long_ex(ptr noundef %68, ptr noundef %69, i64 noundef %71, i64 noundef %72) #11
  %73 = load ptr, ptr %30, align 8
  %74 = load ptr, ptr %31, align 8
  %75 = getelementptr inbounds %struct._xmlError, ptr %74, i32 0, i32 10
  %76 = load i32, ptr %75, align 4
  %77 = sext i32 %76 to i64
  store ptr %73, ptr %23, align 8
  store ptr @.str.7, ptr %24, align 8
  store i64 %77, ptr %25, align 8
  %78 = load ptr, ptr %23, align 8
  %79 = load ptr, ptr %24, align 8
  %80 = load ptr, ptr %24, align 8
  %81 = call i64 @strlen(ptr noundef %80) #10
  %82 = load i64, ptr %25, align 8
  call void @add_property_long_ex(ptr noundef %78, ptr noundef %79, i64 noundef %81, i64 noundef %82) #11
  %83 = load ptr, ptr %31, align 8
  %84 = getelementptr inbounds %struct._xmlError, ptr %83, i32 0, i32 2
  %85 = load ptr, ptr %84, align 8
  %86 = icmp ne ptr %85, null
  br i1 %86, label %87, label %97

87:                                               ; preds = %49
  %88 = load ptr, ptr %30, align 8
  %89 = load ptr, ptr %31, align 8
  %90 = getelementptr inbounds %struct._xmlError, ptr %89, i32 0, i32 2
  %91 = load ptr, ptr %90, align 8
  store ptr %88, ptr %11, align 8
  store ptr @.str.8, ptr %12, align 8
  store ptr %91, ptr %13, align 8
  %92 = load ptr, ptr %11, align 8
  %93 = load ptr, ptr %12, align 8
  %94 = load ptr, ptr %12, align 8
  %95 = call i64 @strlen(ptr noundef %94) #10
  %96 = load ptr, ptr %13, align 8
  call void @add_property_string_ex(ptr noundef %92, ptr noundef %93, i64 noundef %95, ptr noundef %96) #11
  br label %105

97:                                               ; preds = %49
  %98 = load ptr, ptr %30, align 8
  store ptr %98, ptr %3, align 8
  store ptr @.str.8, ptr %4, align 8
  store ptr @.str.9, ptr %5, align 8
  store i64 0, ptr %6, align 8
  %99 = load ptr, ptr %3, align 8
  %100 = load ptr, ptr %4, align 8
  %101 = load ptr, ptr %4, align 8
  %102 = call i64 @strlen(ptr noundef %101) #10
  %103 = load ptr, ptr %5, align 8
  %104 = load i64, ptr %6, align 8
  call void @add_property_stringl_ex(ptr noundef %99, ptr noundef %100, i64 noundef %102, ptr noundef %103, i64 noundef %104) #11
  br label %105

105:                                              ; preds = %97, %87
  %106 = load ptr, ptr %31, align 8
  %107 = getelementptr inbounds %struct._xmlError, ptr %106, i32 0, i32 4
  %108 = load ptr, ptr %107, align 8
  %109 = icmp ne ptr %108, null
  br i1 %109, label %110, label %120

110:                                              ; preds = %105
  %111 = load ptr, ptr %30, align 8
  %112 = load ptr, ptr %31, align 8
  %113 = getelementptr inbounds %struct._xmlError, ptr %112, i32 0, i32 4
  %114 = load ptr, ptr %113, align 8
  store ptr %111, ptr %14, align 8
  store ptr @.str.10, ptr %15, align 8
  store ptr %114, ptr %16, align 8
  %115 = load ptr, ptr %14, align 8
  %116 = load ptr, ptr %15, align 8
  %117 = load ptr, ptr %15, align 8
  %118 = call i64 @strlen(ptr noundef %117) #10
  %119 = load ptr, ptr %16, align 8
  call void @add_property_string_ex(ptr noundef %115, ptr noundef %116, i64 noundef %118, ptr noundef %119) #11
  br label %128

120:                                              ; preds = %105
  %121 = load ptr, ptr %30, align 8
  store ptr %121, ptr %7, align 8
  store ptr @.str.10, ptr %8, align 8
  store ptr @.str.9, ptr %9, align 8
  store i64 0, ptr %10, align 8
  %122 = load ptr, ptr %7, align 8
  %123 = load ptr, ptr %8, align 8
  %124 = load ptr, ptr %8, align 8
  %125 = call i64 @strlen(ptr noundef %124) #10
  %126 = load ptr, ptr %9, align 8
  %127 = load i64, ptr %10, align 8
  call void @add_property_stringl_ex(ptr noundef %122, ptr noundef %123, i64 noundef %125, ptr noundef %126, i64 noundef %127) #11
  br label %128

128:                                              ; preds = %120, %110
  %129 = load ptr, ptr %30, align 8
  %130 = load ptr, ptr %31, align 8
  %131 = getelementptr inbounds %struct._xmlError, ptr %130, i32 0, i32 5
  %132 = load i32, ptr %131, align 8
  %133 = sext i32 %132 to i64
  store ptr %129, ptr %26, align 8
  store ptr @.str.11, ptr %27, align 8
  store i64 %133, ptr %28, align 8
  %134 = load ptr, ptr %26, align 8
  %135 = load ptr, ptr %27, align 8
  %136 = load ptr, ptr %27, align 8
  %137 = call i64 @strlen(ptr noundef %136) #10
  %138 = load i64, ptr %28, align 8
  call void @add_property_long_ex(ptr noundef %134, ptr noundef %135, i64 noundef %137, i64 noundef %138) #11
  br label %146

139:                                              ; preds = %45
  br label %140

140:                                              ; preds = %139
  br label %141

141:                                              ; preds = %140
  %142 = load ptr, ptr %30, align 8
  %143 = getelementptr inbounds %struct._zval_struct, ptr %142, i32 0, i32 1
  store i32 2, ptr %143, align 8
  br label %144

144:                                              ; preds = %141
  br label %146

145:                                              ; No predecessors!
  br label %146

146:                                              ; preds = %145, %144, %128, %43
  ret void
}