; Function Attrs: nounwind uwtable
define hidden void @zif_libxml_get_last_error(ptr nocapture noundef readonly %0, ptr noundef %1) #0 {
  %3 = getelementptr inbounds i8, ptr %0, i64 44
  %4 = load i32, ptr %3, align 4
  %.not = icmp eq i32 %4, 0
  br i1 %.not, label %6, label %5

5:                                                ; preds = %2
  tail call void @zend_wrong_parameters_none_error() #17
  br label %35

6:                                                ; preds = %2
  %7 = tail call ptr @xmlGetLastError() #17
  %.not55 = icmp eq ptr %7, null
  br i1 %.not55, label %33, label %8

8:                                                ; preds = %6
  %9 = load ptr, ptr @libxmlerror_class_entry, align 8
  %10 = tail call i32 @object_init_ex(ptr noundef %1, ptr noundef %9) #17
  %11 = getelementptr inbounds i8, ptr %7, i64 16
  %12 = load i32, ptr %11, align 8
  %13 = zext i32 %12 to i64
  tail call void @add_property_long_ex(ptr noundef %1, ptr noundef nonnull @.str.5, i64 noundef 5, i64 noundef %13) #17
  %14 = getelementptr inbounds i8, ptr %7, i64 4
  %15 = load i32, ptr %14, align 4
  %16 = sext i32 %15 to i64
  tail call void @add_property_long_ex(ptr noundef %1, ptr noundef nonnull @.str.6, i64 noundef 4, i64 noundef %16) #17
  %17 = getelementptr inbounds i8, ptr %7, i64 68
  %18 = load i32, ptr %17, align 4
  %19 = sext i32 %18 to i64
  tail call void @add_property_long_ex(ptr noundef %1, ptr noundef nonnull @.str.7, i64 noundef 6, i64 noundef %19) #17
  %20 = getelementptr inbounds i8, ptr %7, i64 8
  %21 = load ptr, ptr %20, align 8
  %.not56 = icmp eq ptr %21, null
  br i1 %.not56, label %23, label %22

22:                                               ; preds = %8
  tail call void @add_property_string_ex(ptr noundef %1, ptr noundef nonnull @.str.8, i64 noundef 7, ptr noundef nonnull %21) #17
  br label %24

23:                                               ; preds = %8
  tail call void @add_property_stringl_ex(ptr noundef %1, ptr noundef nonnull @.str.8, i64 noundef 7, ptr noundef nonnull @.str.9, i64 noundef 0) #17
  br label %24

24:                                               ; preds = %23, %22
  %25 = getelementptr inbounds i8, ptr %7, i64 24
  %26 = load ptr, ptr %25, align 8
  %.not57 = icmp eq ptr %26, null
  br i1 %.not57, label %28, label %27

27:                                               ; preds = %24
  tail call void @add_property_string_ex(ptr noundef %1, ptr noundef nonnull @.str.10, i64 noundef 4, ptr noundef nonnull %26) #17
  br label %29

28:                                               ; preds = %24
  tail call void @add_property_stringl_ex(ptr noundef %1, ptr noundef nonnull @.str.10, i64 noundef 4, ptr noundef nonnull @.str.9, i64 noundef 0) #17
  br label %29

29:                                               ; preds = %28, %27
  %30 = getelementptr inbounds i8, ptr %7, i64 32
  %31 = load i32, ptr %30, align 8
  %32 = sext i32 %31 to i64
  tail call void @add_property_long_ex(ptr noundef %1, ptr noundef nonnull @.str.11, i64 noundef 4, i64 noundef %32) #17
  br label %35

33:                                               ; preds = %6
  %34 = getelementptr inbounds i8, ptr %1, i64 8
  store i32 2, ptr %34, align 8
  br label %35

35:                                               ; preds = %33, %29, %5
  ret void
}